; ModuleID = 'source-C-CXX/2/2769.c'
source_filename = "source-C-CXX/2/2769.c"
target datalayout = "e-m:e-p270:32:32-p271:32:32-p272:64:64-i64:64-f80:128-n8:16:32:64-S128"
target triple = "x86_64-pc-linux-gnu"

@a = dso_local local_unnamed_addr global [70000 x i32] zeroinitializer, align 16
@.str = private unnamed_addr constant [5 x i8] c"%d%d\00", align 1
@.str.1 = private unnamed_addr constant [3 x i8] c"%d\00", align 1
@.str.2 = private unnamed_addr constant [4 x i8] c"yes\00", align 1
@.str.3 = private unnamed_addr constant [3 x i8] c"no\00", align 1

; Function Attrs: nofree nounwind sspstrong uwtable
define dso_local i32 @main() local_unnamed_addr #0 {
  %1 = alloca i32, align 4
  %2 = alloca i32, align 4
  %3 = alloca [1001 x i32], align 16
  %4 = bitcast i32* %1 to i8*
  call void @llvm.lifetime.start.p0i8(i64 4, i8* nonnull %4) #3
  %5 = bitcast i32* %2 to i8*
  call void @llvm.lifetime.start.p0i8(i64 4, i8* nonnull %5) #3
  %6 = bitcast [1001 x i32]* %3 to i8*
  call void @llvm.lifetime.start.p0i8(i64 4004, i8* nonnull %6) #3
  %7 = call i32 (i8*, ...) @__isoc99_scanf(i8* getelementptr inbounds ([5 x i8], [5 x i8]* @.str, i64 0, i64 0), i32* nonnull %1, i32* nonnull %2)
  %8 = load i32, i32* %1, align 4, !tbaa !5
  %9 = icmp slt i32 %8, 1
  br i1 %9, label %49, label %16

10:                                               ; preds = %16
  %11 = load i32, i32* %2, align 4
  %12 = icmp slt i32 %25, 1
  br i1 %12, label %49, label %13

13:                                               ; preds = %10
  %14 = add nuw i32 %25, 1
  %15 = zext i32 %14 to i64
  br label %28

16:                                               ; preds = %0, %16
  %17 = phi i64 [ %24, %16 ], [ 1, %0 ]
  %18 = getelementptr inbounds [1001 x i32], [1001 x i32]* %3, i64 0, i64 %17
  %19 = call i32 (i8*, ...) @__isoc99_scanf(i8* getelementptr inbounds ([3 x i8], [3 x i8]* @.str.1, i64 0, i64 0), i32* nonnull %18)
  %20 = load i32, i32* %18, align 4, !tbaa !5
  %21 = add nsw i32 %20, 32768
  %22 = sext i32 %21 to i64
  %23 = getelementptr inbounds [70000 x i32], [70000 x i32]* @a, i64 0, i64 %22
  store i32 1, i32* %23, align 4, !tbaa !5
  %24 = add nuw nsw i64 %17, 1
  %25 = load i32, i32* %1, align 4, !tbaa !5
  %26 = sext i32 %25 to i64
  %27 = icmp slt i64 %17, %26
  br i1 %27, label %16, label %10, !llvm.loop !9

28:                                               ; preds = %13, %44
  %29 = phi i64 [ 1, %13 ], [ %45, %44 ]
  %30 = getelementptr inbounds [1001 x i32], [1001 x i32]* %3, i64 0, i64 %29
  %31 = load i32, i32* %30, align 4, !tbaa !5
  %32 = add nsw i32 %31, 32768
  %33 = sext i32 %32 to i64
  %34 = getelementptr inbounds [70000 x i32], [70000 x i32]* @a, i64 0, i64 %33
  %35 = load i32, i32* %34, align 4, !tbaa !5
  %36 = icmp eq i32 %35, 0
  br i1 %36, label %44, label %37

37:                                               ; preds = %28
  %38 = sub i32 32768, %31
  %39 = add i32 %38, %11
  %40 = sext i32 %39 to i64
  %41 = getelementptr inbounds [70000 x i32], [70000 x i32]* @a, i64 0, i64 %40
  %42 = load i32, i32* %41, align 4, !tbaa !5
  %43 = icmp eq i32 %42, 0
  br i1 %43, label %44, label %47

44:                                               ; preds = %28, %37
  %45 = add nuw nsw i64 %29, 1
  %46 = icmp eq i64 %45, %15
  br i1 %46, label %49, label %28, !llvm.loop !11

47:                                               ; preds = %37
  %48 = trunc i64 %29 to i32
  br label %49

49:                                               ; preds = %44, %47, %0, %10
  %50 = phi i32 [ %25, %10 ], [ %8, %0 ], [ %25, %47 ], [ %25, %44 ]
  %51 = phi i32 [ 1, %10 ], [ 1, %0 ], [ %48, %47 ], [ %14, %44 ]
  %52 = icmp slt i32 %51, %50
  %53 = select i1 %52, i8* getelementptr inbounds ([4 x i8], [4 x i8]* @.str.2, i64 0, i64 0), i8* getelementptr inbounds ([3 x i8], [3 x i8]* @.str.3, i64 0, i64 0)
  %54 = call i32 (i8*, ...) @printf(i8* nonnull dereferenceable(1) %53)
  call void @llvm.lifetime.end.p0i8(i64 4004, i8* nonnull %6) #3
  call void @llvm.lifetime.end.p0i8(i64 4, i8* nonnull %5) #3
  call void @llvm.lifetime.end.p0i8(i64 4, i8* nonnull %4) #3
  ret i32 0
}

; Function Attrs: argmemonly mustprogress nofree nosync nounwind willreturn
declare void @llvm.lifetime.start.p0i8(i64 immarg, i8* nocapture) #1

; Function Attrs: nofree nounwind
declare noundef i32 @__isoc99_scanf(i8* nocapture noundef readonly, ...) local_unnamed_addr #2

; Function Attrs: nofree nounwind
declare noundef i32 @printf(i8* nocapture noundef readonly, ...) local_unnamed_addr #2

; Function Attrs: argmemonly mustprogress nofree nosync nounwind willreturn
declare void @llvm.lifetime.end.p0i8(i64 immarg, i8* nocapture) #1


!llvm.module.flags = !{!0, !1, !2, !3}
!llvm.ident = !{!4}

!0 = !{i32 1, !"wchar_size", i32 4}
!1 = !{i32 7, !"PIC Level", i32 2}
!2 = !{i32 7, !"PIE Level", i32 2}
!3 = !{i32 7, !"uwtable", i32 1}
!4 = !{!"clang version 13.0.0"}
!5 = !{!6, !6, i64 0}
!6 = !{!"int", !7, i64 0}
!7 = !{!"omnipotent char", !8, i64 0}
!8 = !{!"Simple C/C++ TBAA"}
!9 = distinct !{!9, !10}
!10 = !{!"llvm.loop.mustprogress"}
!11 = distinct !{!11, !10}
